target datalayout = "e-m:e-p270:32:32-p271:32:32-p272:64:64-i64:64-i128:128-f80:128-n8:16:32:64-S128"
target triple = "x86_64-unknown-linux-gnu"

%struct.BlockDriverState = type { i32, i8, i8, i8, i8, i8, ptr, ptr, ptr, %struct.anon, i8, [4096 x i8], [4096 x i8], [4096 x i8], [16 x i8], ptr, [4096 x i8], %struct.BlockLimits, i32, i32, i32, i32, [32 x i8], %union.anon, %union.anon.0, %union.anon.1, i32, [16 x %struct.anon.2], ptr, %struct.anon.3, ptr, ptr, %struct.anon.4, ptr, ptr, i32, ptr, i64, i64, %struct.QemuMutex, %struct.anon.5, %struct.Stat64, i32, i32, i32, i32, i32, i32, %struct.QemuMutex, %struct.anon.6, %struct.CoQueue, i8, i32, i8, %struct.CoMutex, ptr, ptr }
%struct.anon = type { ptr }
%struct.BlockLimits = type { i32, i64, i32, i64, i32, i32, i32, i64, i32, i64, i64, i32, i8, i32, i32, i32, i32, i32, i32, i32 }
%union.anon = type { %struct.QTailQLink }
%struct.QTailQLink = type { ptr, ptr }
%union.anon.0 = type { %struct.QTailQLink }
%union.anon.1 = type { %struct.QTailQLink }
%struct.anon.2 = type { ptr }
%struct.anon.3 = type { ptr }
%struct.anon.4 = type { ptr }
%struct.anon.5 = type { ptr }
%struct.Stat64 = type { i64 }
%struct.QemuMutex = type { %union.pthread_mutex_t, i8 }
%union.pthread_mutex_t = type { %struct.__pthread_mutex_s }
%struct.__pthread_mutex_s = type { i32, i32, i32, i32, i32, i16, i16, %struct.__pthread_internal_list }
%struct.__pthread_internal_list = type { ptr, ptr }
%struct.anon.6 = type { ptr }
%struct.CoQueue = type { %struct.anon.7 }
%struct.anon.7 = type { ptr, ptr }
%struct.CoMutex = type { i32, ptr, %struct.anon.8, %struct.anon.8, i32, i32, ptr }
%struct.anon.8 = type { ptr }
%struct.BlockDriverInfo = type { i32, i32, i64, i8, i8 }
%struct.BlockNodeInfo = type { ptr, ptr, i8, i8, i8, i64, i64, i8, i64, i8, i8, i8, i8, ptr, ptr, ptr, i8, ptr, ptr }

@.str = private unnamed_addr constant [21 x i8] c"../qemu/block/qapi.c\00", align 1
@__func__.bdrv_do_query_node_info = private unnamed_addr constant [24 x i8] c"bdrv_do_query_node_info\00", align 1
@.str.41 = private unnamed_addr constant [26 x i8] c"Can't get image size '%s'\00", align 1

; Function Attrs: nounwind sspstrong uwtable
define internal void @bdrv_do_query_node_info(ptr noundef %bs, ptr noundef %info, ptr noundef %errp) #0 {
entry:
  %bs.addr = alloca ptr, align 8
  %info.addr = alloca ptr, align 8
  %errp.addr = alloca ptr, align 8
  %size = alloca i64, align 8
  %backing_filename = alloca ptr, align 8
  %bdi = alloca %struct.BlockDriverInfo, align 8
  %ret = alloca i32, align 4
  %err = alloca ptr, align 8
  %backing_filename2 = alloca ptr, align 8
  store ptr %bs, ptr %bs.addr, align 8
  store ptr %info, ptr %info.addr, align 8
  store ptr %errp, ptr %errp.addr, align 8
  store ptr null, ptr %err, align 8
  %0 = load ptr, ptr %bs.addr, align 8
  %call = call ptr @bdrv_get_aio_context(ptr noundef %0)
  call void @aio_context_acquire(ptr noundef %call)
  %1 = load ptr, ptr %bs.addr, align 8
  %call1 = call i64 @bdrv_getlength(ptr noundef %1)
  store i64 %call1, ptr %size, align 8
  %2 = load i64, ptr %size, align 8
  %cmp = icmp slt i64 %2, 0
  br i1 %cmp, label %if.then, label %if.end

if.then:                                          ; preds = %entry
  %3 = load ptr, ptr %errp.addr, align 8
  %4 = load i64, ptr %size, align 8
  %sub = sub i64 0, %4
  %conv = trunc i64 %sub to i32
  %5 = load ptr, ptr %bs.addr, align 8
  %exact_filename = getelementptr inbounds %struct.BlockDriverState, ptr %5, i32 0, i32 16
  %arraydecay = getelementptr inbounds [4096 x i8], ptr %exact_filename, i64 0, i64 0
  call void (ptr, ptr, i32, ptr, i32, ptr, ...) @error_setg_errno_internal(ptr noundef %3, ptr noundef @.str, i32 noundef 242, ptr noundef @__func__.bdrv_do_query_node_info, i32 noundef %conv, ptr noundef @.str.41, ptr noundef %arraydecay)
  br label %out

if.end:                                           ; preds = %entry
  %6 = load ptr, ptr %bs.addr, align 8
  call void @bdrv_refresh_filename(ptr noundef %6)
  %7 = load ptr, ptr %bs.addr, align 8
  %filename = getelementptr inbounds %struct.BlockDriverState, ptr %7, i32 0, i32 11
  %arraydecay2 = getelementptr inbounds [4096 x i8], ptr %filename, i64 0, i64 0
  %call3 = call noalias ptr @g_strdup(ptr noundef %arraydecay2)
  %8 = load ptr, ptr %info.addr, align 8
  %filename4 = getelementptr inbounds %struct.BlockNodeInfo, ptr %8, i32 0, i32 0
  store ptr %call3, ptr %filename4, align 8
  %9 = load ptr, ptr %bs.addr, align 8
  %call5 = call ptr @bdrv_get_format_name(ptr noundef %9)
  %call6 = call noalias ptr @g_strdup(ptr noundef %call5)
  %10 = load ptr, ptr %info.addr, align 8
  %format = getelementptr inbounds %struct.BlockNodeInfo, ptr %10, i32 0, i32 1
  store ptr %call6, ptr %format, align 8
  %11 = load i64, ptr %size, align 8
  %12 = load ptr, ptr %info.addr, align 8
  %virtual_size = getelementptr inbounds %struct.BlockNodeInfo, ptr %12, i32 0, i32 6
  store i64 %11, ptr %virtual_size, align 8
  %13 = load ptr, ptr %bs.addr, align 8
  %call7 = call i64 @bdrv_get_allocated_file_size(ptr noundef %13)
  %14 = load ptr, ptr %info.addr, align 8
  %actual_size = getelementptr inbounds %struct.BlockNodeInfo, ptr %14, i32 0, i32 5
  store i64 %call7, ptr %actual_size, align 8
  %15 = load ptr, ptr %info.addr, align 8
  %actual_size8 = getelementptr inbounds %struct.BlockNodeInfo, ptr %15, i32 0, i32 5
  %16 = load i64, ptr %actual_size8, align 8
  %cmp9 = icmp sge i64 %16, 0
  %17 = load ptr, ptr %info.addr, align 8
  %has_actual_size = getelementptr inbounds %struct.BlockNodeInfo, ptr %17, i32 0, i32 4
  %frombool = zext i1 %cmp9 to i8
  store i8 %frombool, ptr %has_actual_size, align 2
  %18 = load ptr, ptr %bs.addr, align 8
  %encrypted = getelementptr inbounds %struct.BlockDriverState, ptr %18, i32 0, i32 1
  %19 = load i8, ptr %encrypted, align 4
  %tobool = trunc i8 %19 to i1
  br i1 %tobool, label %if.then11, label %if.end13

if.then11:                                        ; preds = %if.end
  %20 = load ptr, ptr %info.addr, align 8
  %encrypted12 = getelementptr inbounds %struct.BlockNodeInfo, ptr %20, i32 0, i32 10
  store i8 1, ptr %encrypted12, align 1
  %21 = load ptr, ptr %info.addr, align 8
  %has_encrypted = getelementptr inbounds %struct.BlockNodeInfo, ptr %21, i32 0, i32 9
  store i8 1, ptr %has_encrypted, align 8
  br label %if.end13

if.end13:                                         ; preds = %if.then11, %if.end
  %22 = load ptr, ptr %bs.addr, align 8
  %call14 = call i32 @bdrv_get_info(ptr noundef %22, ptr noundef %bdi)
  %cmp15 = icmp sge i32 %call14, 0
  br i1 %cmp15, label %if.then17, label %if.end27

if.then17:                                        ; preds = %if.end13
  %cluster_size = getelementptr inbounds %struct.BlockDriverInfo, ptr %bdi, i32 0, i32 0
  %23 = load i32, ptr %cluster_size, align 8
  %cmp18 = icmp ne i32 %23, 0
  br i1 %cmp18, label %if.then20, label %if.end24

if.then20:                                        ; preds = %if.then17
  %cluster_size21 = getelementptr inbounds %struct.BlockDriverInfo, ptr %bdi, i32 0, i32 0
  %24 = load i32, ptr %cluster_size21, align 8
  %conv22 = sext i32 %24 to i64
  %25 = load ptr, ptr %info.addr, align 8
  %cluster_size23 = getelementptr inbounds %struct.BlockNodeInfo, ptr %25, i32 0, i32 8
  store i64 %conv22, ptr %cluster_size23, align 8
  %26 = load ptr, ptr %info.addr, align 8
  %has_cluster_size = getelementptr inbounds %struct.BlockNodeInfo, ptr %26, i32 0, i32 7
  store i8 1, ptr %has_cluster_size, align 8
  br label %if.end24

if.end24:                                         ; preds = %if.then20, %if.then17
  %is_dirty = getelementptr inbounds %struct.BlockDriverInfo, ptr %bdi, i32 0, i32 3
  %27 = load i8, ptr %is_dirty, align 8
  %tobool25 = trunc i8 %27 to i1
  %28 = load ptr, ptr %info.addr, align 8
  %dirty_flag = getelementptr inbounds %struct.BlockNodeInfo, ptr %28, i32 0, i32 3
  %frombool26 = zext i1 %tobool25 to i8
  store i8 %frombool26, ptr %dirty_flag, align 1
  %29 = load ptr, ptr %info.addr, align 8
  %has_dirty_flag = getelementptr inbounds %struct.BlockNodeInfo, ptr %29, i32 0, i32 2
  store i8 1, ptr %has_dirty_flag, align 8
  br label %if.end27

if.end27:                                         ; preds = %if.end24, %if.end13
  %30 = load ptr, ptr %bs.addr, align 8
  %call28 = call ptr @bdrv_get_specific_info(ptr noundef %30, ptr noundef %err)
  %31 = load ptr, ptr %info.addr, align 8
  %format_specific = getelementptr inbounds %struct.BlockNodeInfo, ptr %31, i32 0, i32 18
  store ptr %call28, ptr %format_specific, align 8
  %32 = load ptr, ptr %err, align 8
  %tobool29 = icmp ne ptr %32, null
  br i1 %tobool29, label %if.then30, label %if.end31

if.then30:                                        ; preds = %if.end27
  %33 = load ptr, ptr %errp.addr, align 8
  %34 = load ptr, ptr %err, align 8
  call void @error_propagate(ptr noundef %33, ptr noundef %34)
  br label %out

if.end31:                                         ; preds = %if.end27
  %35 = load ptr, ptr %bs.addr, align 8
  %backing_file = getelementptr inbounds %struct.BlockDriverState, ptr %35, i32 0, i32 12
  %arraydecay32 = getelementptr inbounds [4096 x i8], ptr %backing_file, i64 0, i64 0
  store ptr %arraydecay32, ptr %backing_filename, align 8
  %36 = load ptr, ptr %backing_filename, align 8
  %arrayidx = getelementptr i8, ptr %36, i64 0
  %37 = load i8, ptr %arrayidx, align 1
  %conv33 = sext i8 %37 to i32
  %cmp34 = icmp ne i32 %conv33, 0
  br i1 %cmp34, label %if.then36, label %if.end51

if.then36:                                        ; preds = %if.end31
  %38 = load ptr, ptr %backing_filename, align 8
  %call37 = call noalias ptr @g_strdup(ptr noundef %38)
  %39 = load ptr, ptr %info.addr, align 8
  %backing_filename38 = getelementptr inbounds %struct.BlockNodeInfo, ptr %39, i32 0, i32 13
  store ptr %call37, ptr %backing_filename38, align 8
  %40 = load ptr, ptr %bs.addr, align 8
  %call39 = call ptr @bdrv_get_full_backing_filename(ptr noundef %40, ptr noundef null)
  store ptr %call39, ptr %backing_filename2, align 8
  %41 = load ptr, ptr %backing_filename2, align 8
  %tobool40 = icmp ne ptr %41, null
  br i1 %tobool40, label %if.then41, label %if.end43

if.then41:                                        ; preds = %if.then36
  %42 = load ptr, ptr %backing_filename2, align 8
  %call42 = call noalias ptr @g_strdup(ptr noundef %42)
  %43 = load ptr, ptr %info.addr, align 8
  %full_backing_filename = getelementptr inbounds %struct.BlockNodeInfo, ptr %43, i32 0, i32 14
  store ptr %call42, ptr %full_backing_filename, align 8
  br label %if.end43

if.end43:                                         ; preds = %if.then41, %if.then36
  %44 = load ptr, ptr %bs.addr, align 8
  %backing_format = getelementptr inbounds %struct.BlockDriverState, ptr %44, i32 0, i32 14
  %arrayidx44 = getelementptr [16 x i8], ptr %backing_format, i64 0, i64 0
  %45 = load i8, ptr %arrayidx44, align 1
  %tobool45 = icmp ne i8 %45, 0
  br i1 %tobool45, label %if.then46, label %if.end50

if.then46:                                        ; preds = %if.end43
  %46 = load ptr, ptr %bs.addr, align 8
  %backing_format47 = getelementptr inbounds %struct.BlockDriverState, ptr %46, i32 0, i32 14
  %arraydecay48 = getelementptr inbounds [16 x i8], ptr %backing_format47, i64 0, i64 0
  %call49 = call noalias ptr @g_strdup(ptr noundef %arraydecay48)
  %47 = load ptr, ptr %info.addr, align 8
  %backing_filename_format = getelementptr inbounds %struct.BlockNodeInfo, ptr %47, i32 0, i32 15
  store ptr %call49, ptr %backing_filename_format, align 8
  br label %if.end50

if.end50:                                         ; preds = %if.then46, %if.end43
  %48 = load ptr, ptr %backing_filename2, align 8
  call void @g_free(ptr noundef %48)
  br label %if.end51

if.end51:                                         ; preds = %if.end50, %if.end31
  %49 = load ptr, ptr %bs.addr, align 8
  %50 = load ptr, ptr %info.addr, align 8
  %snapshots = getelementptr inbounds %struct.BlockNodeInfo, ptr %50, i32 0, i32 17
  %call52 = call i32 @bdrv_query_snapshot_info_list(ptr noundef %49, ptr noundef %snapshots, ptr noundef %err)
  store i32 %call52, ptr %ret, align 4
  %51 = load i32, ptr %ret, align 4
  switch i32 %51, label %sw.default [
    i32 0, label %sw.bb
    i32 -123, label %sw.bb57
    i32 -95, label %sw.bb57
  ]

sw.bb:                                            ; preds = %if.end51
  %52 = load ptr, ptr %info.addr, align 8
  %snapshots53 = getelementptr inbounds %struct.BlockNodeInfo, ptr %52, i32 0, i32 17
  %53 = load ptr, ptr %snapshots53, align 8
  %tobool54 = icmp ne ptr %53, null
  br i1 %tobool54, label %if.then55, label %if.end56

if.then55:                                        ; preds = %sw.bb
  %54 = load ptr, ptr %info.addr, align 8
  %has_snapshots = getelementptr inbounds %struct.BlockNodeInfo, ptr %54, i32 0, i32 16
  store i8 1, ptr %has_snapshots, align 8
  br label %if.end56

if.end56:                                         ; preds = %if.then55, %sw.bb
  br label %sw.epilog

sw.bb57:                                          ; preds = %if.end51, %if.end51
  %55 = load ptr, ptr %err, align 8
  call void @error_free(ptr noundef %55)
  br label %sw.epilog

sw.default:                                       ; preds = %if.end51
  %56 = load ptr, ptr %errp.addr, align 8
  %57 = load ptr, ptr %err, align 8
  call void @error_propagate(ptr noundef %56, ptr noundef %57)
  br label %out

sw.epilog:                                        ; preds = %sw.bb57, %if.end56
  br label %out

out:                                              ; preds = %sw.epilog, %sw.default, %if.then30, %if.then
  %58 = load ptr, ptr %bs.addr, align 8
  %call58 = call ptr @bdrv_get_aio_context(ptr noundef %58)
  call void @aio_context_release(ptr noundef %call58)
  ret void
}