; Function Attrs: nounwind sspstrong uwtable
define internal fastcc void @bdrv_do_query_node_info(ptr noundef %bs, ptr noundef captures(none) %info, ptr noundef %errp) unnamed_addr #0 {
entry:
  %bdi = alloca %struct.BlockDriverInfo, align 8
  %err = alloca ptr, align 8
  store ptr null, ptr %err, align 8
  %call = tail call ptr @bdrv_get_aio_context(ptr noundef %bs) #10
  tail call void @aio_context_acquire(ptr noundef %call) #10
  %call1 = tail call i64 @bdrv_getlength(ptr noundef %bs) #10
  %cmp = icmp slt i64 %call1, 0
  br i1 %cmp, label %if.then, label %if.end

if.then:                                          ; preds = %entry
  %0 = trunc i64 %call1 to i32
  %conv = sub i32 0, %0
  %exact_filename = getelementptr inbounds nuw i8, ptr %bs, i64 12368
  tail call void (ptr, ptr, i32, ptr, i32, ptr, ...) @error_setg_errno_internal(ptr noundef %errp, ptr noundef nonnull @.str, i32 noundef 242, ptr noundef nonnull @__func__.bdrv_do_query_node_info, i32 noundef %conv, ptr noundef nonnull @.str.41, ptr noundef nonnull %exact_filename) #10
  br label %out

if.end:                                           ; preds = %entry
  tail call void @bdrv_refresh_filename(ptr noundef %bs) #10
  %filename = getelementptr inbounds nuw i8, ptr %bs, i64 49
  %call3 = tail call noalias ptr @g_strdup(ptr noundef nonnull %filename) #10
  store ptr %call3, ptr %info, align 8
  %call5 = tail call ptr @bdrv_get_format_name(ptr noundef %bs) #10
  %call6 = tail call noalias ptr @g_strdup(ptr noundef %call5) #10
  %format = getelementptr inbounds nuw i8, ptr %info, i64 8
  store ptr %call6, ptr %format, align 8
  %virtual_size = getelementptr inbounds nuw i8, ptr %info, i64 32
  store i64 %call1, ptr %virtual_size, align 8
  %call7 = tail call i64 @bdrv_get_allocated_file_size(ptr noundef %bs) #10
  %actual_size = getelementptr inbounds nuw i8, ptr %info, i64 24
  store i64 %call7, ptr %actual_size, align 8
  %cmp9 = icmp sgt i64 %call7, -1
  %has_actual_size = getelementptr inbounds nuw i8, ptr %info, i64 18
  %frombool = zext i1 %cmp9 to i8
  store i8 %frombool, ptr %has_actual_size, align 2
  %encrypted = getelementptr inbounds nuw i8, ptr %bs, i64 4
  %1 = load i8, ptr %encrypted, align 4
  %tobool = trunc i8 %1 to i1
  br i1 %tobool, label %if.then11, label %if.end13

if.then11:                                        ; preds = %if.end
  %encrypted12 = getelementptr inbounds nuw i8, ptr %info, i64 57
  store i8 1, ptr %encrypted12, align 1
  %has_encrypted = getelementptr inbounds nuw i8, ptr %info, i64 56
  store i8 1, ptr %has_encrypted, align 8
  br label %if.end13

if.end13:                                         ; preds = %if.then11, %if.end
  %call14 = call i32 @bdrv_get_info(ptr noundef nonnull %bs, ptr noundef nonnull %bdi) #10
  %cmp15 = icmp sgt i32 %call14, -1
  br i1 %cmp15, label %if.then17, label %if.end27

if.then17:                                        ; preds = %if.end13
  %2 = load i32, ptr %bdi, align 8
  %cmp18.not = icmp eq i32 %2, 0
  br i1 %cmp18.not, label %if.end24, label %if.then20

if.then20:                                        ; preds = %if.then17
  %conv22 = sext i32 %2 to i64
  %cluster_size23 = getelementptr inbounds nuw i8, ptr %info, i64 48
  store i64 %conv22, ptr %cluster_size23, align 8
  %has_cluster_size = getelementptr inbounds nuw i8, ptr %info, i64 40
  store i8 1, ptr %has_cluster_size, align 8
  br label %if.end24

if.end24:                                         ; preds = %if.then20, %if.then17
  %is_dirty = getelementptr inbounds nuw i8, ptr %bdi, i64 16
  %3 = load i8, ptr %is_dirty, align 8
  %dirty_flag = getelementptr inbounds nuw i8, ptr %info, i64 17
  %frombool26 = and i8 %3, 1
  store i8 %frombool26, ptr %dirty_flag, align 1
  %has_dirty_flag = getelementptr inbounds nuw i8, ptr %info, i64 16
  store i8 1, ptr %has_dirty_flag, align 8
  br label %if.end27

if.end27:                                         ; preds = %if.end24, %if.end13
  %call28 = call ptr @bdrv_get_specific_info(ptr noundef nonnull %bs, ptr noundef nonnull %err) #10
  %format_specific = getelementptr inbounds nuw i8, ptr %info, i64 104
  store ptr %call28, ptr %format_specific, align 8
  %4 = load ptr, ptr %err, align 8
  %tobool29.not = icmp eq ptr %4, null
  br i1 %tobool29.not, label %if.end31, label %if.then30

if.then30:                                        ; preds = %if.end27
  call void @error_propagate(ptr noundef %errp, ptr noundef nonnull %4) #10
  br label %out

if.end31:                                         ; preds = %if.end27
  %backing_file = getelementptr inbounds nuw i8, ptr %bs, i64 4145
  %5 = load i8, ptr %backing_file, align 1
  %cmp34.not = icmp eq i8 %5, 0
  br i1 %cmp34.not, label %if.end51, label %if.then36

if.then36:                                        ; preds = %if.end31
  %call37 = call noalias ptr @g_strdup(ptr noundef nonnull %backing_file) #10
  %backing_filename38 = getelementptr inbounds nuw i8, ptr %info, i64 64
  store ptr %call37, ptr %backing_filename38, align 8
  %call39 = call ptr @bdrv_get_full_backing_filename(ptr noundef nonnull %bs, ptr noundef null) #10
  %tobool40.not = icmp eq ptr %call39, null
  br i1 %tobool40.not, label %if.end43, label %if.then41

if.then41:                                        ; preds = %if.then36
  %call42 = call noalias ptr @g_strdup(ptr noundef nonnull %call39) #10
  %full_backing_filename = getelementptr inbounds nuw i8, ptr %info, i64 72
  store ptr %call42, ptr %full_backing_filename, align 8
  br label %if.end43

if.end43:                                         ; preds = %if.then41, %if.then36
  %backing_format = getelementptr inbounds nuw i8, ptr %bs, i64 12337
  %6 = load i8, ptr %backing_format, align 1
  %tobool45.not = icmp eq i8 %6, 0
  br i1 %tobool45.not, label %if.end50, label %if.then46

if.then46:                                        ; preds = %if.end43
  %call49 = call noalias ptr @g_strdup(ptr noundef nonnull %backing_format) #10
  %backing_filename_format = getelementptr inbounds nuw i8, ptr %info, i64 80
  store ptr %call49, ptr %backing_filename_format, align 8
  br label %if.end50

if.end50:                                         ; preds = %if.then46, %if.end43
  call void @g_free(ptr noundef %call39) #10
  br label %if.end51

if.end51:                                         ; preds = %if.end50, %if.end31
  %snapshots = getelementptr inbounds nuw i8, ptr %info, i64 96
  %call52 = call i32 @bdrv_query_snapshot_info_list(ptr noundef nonnull %bs, ptr noundef nonnull %snapshots, ptr noundef nonnull %err)
  switch i32 %call52, label %sw.default [
    i32 0, label %sw.bb
    i32 -123, label %sw.bb57
    i32 -95, label %sw.bb57
  ]

sw.bb:                                            ; preds = %if.end51
  %7 = load ptr, ptr %snapshots, align 8
  %tobool54.not = icmp eq ptr %7, null
  br i1 %tobool54.not, label %out, label %if.then55

if.then55:                                        ; preds = %sw.bb
  %has_snapshots = getelementptr inbounds nuw i8, ptr %info, i64 88
  store i8 1, ptr %has_snapshots, align 8
  br label %out

sw.bb57:                                          ; preds = %if.end51, %if.end51
  %8 = load ptr, ptr %err, align 8
  call void @error_free(ptr noundef %8) #10
  br label %out

sw.default:                                       ; preds = %if.end51
  %9 = load ptr, ptr %err, align 8
  call void @error_propagate(ptr noundef %errp, ptr noundef %9) #10
  br label %out

out:                                              ; preds = %sw.bb57, %if.then55, %sw.bb, %sw.default, %if.then30, %if.then
  %call58 = call ptr @bdrv_get_aio_context(ptr noundef nonnull %bs) #10
  call void @aio_context_release(ptr noundef %call58) #10
  ret void
}